target datalayout = "e-m:e-p270:32:32-p271:32:32-p272:64:64-i64:64-i128:128-f80:128-n8:16:32:64-S128"
target triple = "x86_64-pc-linux-gnu"

%struct.UCharIterator = type { ptr, i32, i32, i32, i32, i32, ptr, ptr, ptr, ptr, ptr, ptr, ptr, ptr, ptr, ptr }
%"class.icu_77::CharacterIterator" = type { %"class.icu_77::ForwardCharacterIterator", i32, i32, i32, i32 }
%"class.icu_77::ForwardCharacterIterator" = type { %"class.icu_77::UObject" }
%"class.icu_77::UObject" = type { ptr }

; Function Attrs: inlinehint mustprogress nounwind uwtable
define linkonce_odr noundef i32 @_ZNK6icu_7717CharacterIterator9getLengthEv(ptr noundef nonnull align 8 dereferenceable(24) %0) #7 comdat align 2 {
  %2 = alloca ptr, align 8
  store ptr %0, ptr %2, align 8, !tbaa !23
  %3 = load ptr, ptr %2, align 8
  %4 = getelementptr inbounds nuw %"class.icu_77::CharacterIterator", ptr %3, i32 0, i32 1
  %5 = load i32, ptr %4, align 8, !tbaa !49
  ret i32 %5
}

; Function Attrs: inlinehint mustprogress nounwind uwtable
define linkonce_odr noundef i32 @_ZNK6icu_7717CharacterIterator8getIndexEv(ptr noundef nonnull align 8 dereferenceable(24) %0) #7 comdat align 2 {
  %2 = alloca ptr, align 8
  store ptr %0, ptr %2, align 8, !tbaa !23
  %3 = load ptr, ptr %2, align 8
  %4 = getelementptr inbounds nuw %"class.icu_77::CharacterIterator", ptr %3, i32 0, i32 2
  %5 = load i32, ptr %4, align 4, !tbaa !47
  ret i32 %5
}

; Function Attrs: mustprogress uwtable
define internal noundef i32 @_ZL21characterIteratorMoveP13UCharIteratori19UCharIteratorOrigin(ptr noundef %0, i32 noundef %1, i32 noundef %2) #0 {
  %4 = alloca i32, align 4
  %5 = alloca ptr, align 8
  %6 = alloca i32, align 4
  %7 = alloca i32, align 4
  store ptr %0, ptr %5, align 8, !tbaa !3
  store i32 %1, ptr %6, align 4, !tbaa !10
  store i32 %2, ptr %7, align 4, !tbaa !37
  %8 = load i32, ptr %7, align 4, !tbaa !37
  switch i32 %8, label %50 [
    i32 3, label %9
    i32 0, label %22
    i32 1, label %22
    i32 2, label %22
    i32 4, label %32
  ]

9:                                                ; preds = %3
  %10 = load ptr, ptr %5, align 8, !tbaa !3
  %11 = getelementptr inbounds nuw %struct.UCharIterator, ptr %10, i32 0, i32 0
  %12 = load ptr, ptr %11, align 8, !tbaa !14
  %13 = load i32, ptr %6, align 4, !tbaa !10
  %14 = load ptr, ptr %12, align 8, !tbaa !27
  %15 = getelementptr inbounds ptr, ptr %14, i64 15
  %16 = load ptr, ptr %15, align 8
  %17 = call noundef zeroext i16 %16(ptr noundef nonnull align 8 dereferenceable(24) %12, i32 noundef %13)
  %18 = load ptr, ptr %5, align 8, !tbaa !3
  %19 = getelementptr inbounds nuw %struct.UCharIterator, ptr %18, i32 0, i32 0
  %20 = load ptr, ptr %19, align 8, !tbaa !14
  %21 = call noundef i32 @_ZNK6icu_7717CharacterIterator8getIndexEv(ptr noundef nonnull align 8 dereferenceable(24) %20)
  store i32 %21, ptr %4, align 4
  br label %51

22:                                               ; preds = %3, %3, %3
  %23 = load ptr, ptr %5, align 8, !tbaa !3
  %24 = getelementptr inbounds nuw %struct.UCharIterator, ptr %23, i32 0, i32 0
  %25 = load ptr, ptr %24, align 8, !tbaa !14
  %26 = load i32, ptr %6, align 4, !tbaa !10
  %27 = load i32, ptr %7, align 4, !tbaa !37
  %28 = load ptr, ptr %25, align 8, !tbaa !27
  %29 = getelementptr inbounds ptr, ptr %28, i64 24
  %30 = load ptr, ptr %29, align 8
  %31 = call noundef i32 %30(ptr noundef nonnull align 8 dereferenceable(24) %25, i32 noundef %26, i32 noundef %27)
  store i32 %31, ptr %4, align 4
  br label %51

32:                                               ; preds = %3
  %33 = load ptr, ptr %5, align 8, !tbaa !3
  %34 = getelementptr inbounds nuw %struct.UCharIterator, ptr %33, i32 0, i32 0
  %35 = load ptr, ptr %34, align 8, !tbaa !14
  %36 = load ptr, ptr %5, align 8, !tbaa !3
  %37 = getelementptr inbounds nuw %struct.UCharIterator, ptr %36, i32 0, i32 0
  %38 = load ptr, ptr %37, align 8, !tbaa !14
  %39 = call noundef i32 @_ZNK6icu_7717CharacterIterator9getLengthEv(ptr noundef nonnull align 8 dereferenceable(24) %38)
  %40 = load i32, ptr %6, align 4, !tbaa !10
  %41 = add nsw i32 %39, %40
  %42 = load ptr, ptr %35, align 8, !tbaa !27
  %43 = getelementptr inbounds ptr, ptr %42, i64 15
  %44 = load ptr, ptr %43, align 8
  %45 = call noundef zeroext i16 %44(ptr noundef nonnull align 8 dereferenceable(24) %35, i32 noundef %41)
  %46 = load ptr, ptr %5, align 8, !tbaa !3
  %47 = getelementptr inbounds nuw %struct.UCharIterator, ptr %46, i32 0, i32 0
  %48 = load ptr, ptr %47, align 8, !tbaa !14
  %49 = call noundef i32 @_ZNK6icu_7717CharacterIterator8getIndexEv(ptr noundef nonnull align 8 dereferenceable(24) %48)
  store i32 %49, ptr %4, align 4
  br label %51

50:                                               ; preds = %3
  store i32 -1, ptr %4, align 4
  br label %51

51:                                               ; preds = %50, %32, %22, %9
  %52 = load i32, ptr %4, align 4
  ret i32 %52
}