; Function Attrs: mustprogress uwtable
define internal noundef i32 @_ZL21characterIteratorMoveP13UCharIteratori19UCharIteratorOrigin(ptr noundef readonly captures(none) %0, i32 noundef %1, i32 noundef %2) #0 {
  switch i32 %2, label %31 [
    i32 3, label %4
    i32 0, label %13
    i32 1, label %13
    i32 2, label %13
    i32 4, label %19
  ]

4:                                                ; preds = %3
  %5 = load ptr, ptr %0, align 8, !tbaa !10
  %6 = load ptr, ptr %5, align 8, !tbaa !17
  %7 = getelementptr inbounds nuw i8, ptr %6, i64 120
  %8 = load ptr, ptr %7, align 8
  %9 = tail call noundef zeroext i16 %8(ptr noundef nonnull align 8 dereferenceable(24) %5, i32 noundef %1)
  %10 = load ptr, ptr %0, align 8, !tbaa !10
  %11 = getelementptr inbounds nuw i8, ptr %10, i64 12
  %12 = load i32, ptr %11, align 4, !tbaa !35
  br label %31

13:                                               ; preds = %3, %3, %3
  %14 = load ptr, ptr %0, align 8, !tbaa !10
  %15 = load ptr, ptr %14, align 8, !tbaa !17
  %16 = getelementptr inbounds nuw i8, ptr %15, i64 192
  %17 = load ptr, ptr %16, align 8
  %18 = tail call noundef i32 %17(ptr noundef nonnull align 8 dereferenceable(24) %14, i32 noundef %1, i32 noundef %2)
  br label %31

19:                                               ; preds = %3
  %20 = load ptr, ptr %0, align 8, !tbaa !10
  %21 = getelementptr inbounds nuw i8, ptr %20, i64 8
  %22 = load i32, ptr %21, align 8, !tbaa !37
  %23 = add nsw i32 %22, %1
  %24 = load ptr, ptr %20, align 8, !tbaa !17
  %25 = getelementptr inbounds nuw i8, ptr %24, i64 120
  %26 = load ptr, ptr %25, align 8
  %27 = tail call noundef zeroext i16 %26(ptr noundef nonnull align 8 dereferenceable(24) %20, i32 noundef %23)
  %28 = load ptr, ptr %0, align 8, !tbaa !10
  %29 = getelementptr inbounds nuw i8, ptr %28, i64 12
  %30 = load i32, ptr %29, align 4, !tbaa !35
  br label %31

31:                                               ; preds = %3, %19, %13, %4
  %.0 = phi i32 [ %30, %19 ], [ %18, %13 ], [ %12, %4 ], [ -1, %3 ]
  ret i32 %.0
}